; Function Attrs: mustprogress nounwind uwtable
define internal fastcc void @_ZN12_GLOBAL__N_112canonicalizeEN4llvm9StringRefE(ptr dead_on_unwind noalias writable align 8 %0, ptr %1, i64 %2) unnamed_addr #0 {
  %4 = alloca %"class.llvm::StringRef", align 8
  call void @llvm.lifetime.start.p0(i64 16, ptr nonnull %4)
  store ptr %1, ptr %4, align 8
  %5 = getelementptr inbounds nuw i8, ptr %4, i64 8
  store i64 %2, ptr %5, align 8
  %6 = call noundef i64 @_ZNK4llvm9StringRef13find_first_ofES0_m(ptr noundef nonnull align 8 dereferenceable(16) %4, ptr nonnull @.str.20, i64 2, i64 noundef 0) #27
  %.not.i = icmp eq i64 %6, -1
  br i1 %.not.i, label %_ZN12_GLOBAL__N_116getExistingStyleEN4llvm9StringRefE.exit, label %7

7:                                                ; preds = %3
  %8 = load ptr, ptr %4, align 8
  %9 = getelementptr inbounds i8, ptr %8, i64 %6
  %10 = load i8, ptr %9, align 1
  %11 = icmp eq i8 %10, 47
  %12 = select i1 %11, i32 1, i32 3
  br label %_ZN12_GLOBAL__N_116getExistingStyleEN4llvm9StringRefE.exit

_ZN12_GLOBAL__N_116getExistingStyleEN4llvm9StringRefE.exit: ; preds = %3, %7
  %.0.i = phi i32 [ %12, %7 ], [ 0, %3 ]
  call void @llvm.lifetime.end.p0(i64 16, ptr nonnull %4)
  %13 = call { ptr, i64 } @_ZN4llvm3sys4path23remove_leading_dotslashENS_9StringRefENS1_5StyleE(ptr %1, i64 %2, i32 noundef %.0.i) #27
  %14 = extractvalue { ptr, i64 } %13, 0
  %15 = extractvalue { ptr, i64 } %13, 1
  %16 = getelementptr inbounds i8, ptr %14, i64 %15
  %17 = getelementptr inbounds i8, ptr %0, i64 24
  call void @_ZN4llvm15SmallVectorBaseImEC2EPvm(ptr noundef nonnull align 8 dereferenceable(24) %0, ptr noundef nonnull %17, i64 noundef 256) #27
  call void @_ZN4llvm15SmallVectorImplIcE6appendIPKcvEEvT_S5_(ptr noundef nonnull align 8 dereferenceable(24) %0, ptr noundef %14, ptr noundef %16)
  %18 = call noundef zeroext i1 @_ZN4llvm3sys4path11remove_dotsERNS_15SmallVectorImplIcEEbNS1_5StyleE(ptr noundef nonnull align 8 dereferenceable(24) %0, i1 noundef zeroext true, i32 noundef %.0.i) #27
  ret void
}